; ModuleID = '14/1477.c'
source_filename = "14/1477.c"
target datalayout = "e-m:e-p270:32:32-p271:32:32-p272:64:64-i64:64-f80:128-n8:16:32:64-S128"
target triple = "x86_64-pc-linux-gnu"

@.str = private unnamed_addr constant [3 x i8] c"%d\00", align 1
@.str.1 = private unnamed_addr constant [7 x i8] c"%d %d\0A\00", align 1

; Function Attrs: noinline nounwind uwtable
define dso_local i32 @main() #0 {
  %1 = alloca i32, align 4
  %2 = alloca i32, align 4
  %3 = alloca i32, align 4
  %4 = alloca i32, align 4
  %5 = alloca [99999 x [3 x i32]], align 16
  %6 = alloca [99999 x i32], align 16
  %7 = alloca i32, align 4
  %8 = alloca i32, align 4
  %9 = alloca i32, align 4
  %10 = alloca i32, align 4
  %11 = alloca i32, align 4
  %12 = alloca i32, align 4
  store i32 0, i32* %1, align 4
  store i32 0, i32* %7, align 4
  store i32 0, i32* %8, align 4
  store i32 0, i32* %9, align 4
  store i32 0, i32* %10, align 4
  store i32 0, i32* %11, align 4
  store i32 0, i32* %12, align 4
  %13 = call i32 (i8*, ...) @__isoc99_scanf(i8* getelementptr inbounds ([3 x i8], [3 x i8]* @.str, i64 0, i64 0), i32* %2)
  store i32 0, i32* %3, align 4
  br label %14

14:                                               ; preds = %48, %0
  %15 = load i32, i32* %3, align 4
  %16 = load i32, i32* %2, align 4
  %17 = icmp slt i32 %15, %16
  br i1 %17, label %18, label %51

18:                                               ; preds = %14
  store i32 0, i32* %4, align 4
  br label %19

19:                                               ; preds = %30, %18
  %20 = load i32, i32* %4, align 4
  %21 = icmp slt i32 %20, 3
  br i1 %21, label %22, label %33

22:                                               ; preds = %19
  %23 = load i32, i32* %3, align 4
  %24 = sext i32 %23 to i64
  %25 = getelementptr inbounds [99999 x [3 x i32]], [99999 x [3 x i32]]* %5, i64 0, i64 %24
  %26 = load i32, i32* %4, align 4
  %27 = sext i32 %26 to i64
  %28 = getelementptr inbounds [3 x i32], [3 x i32]* %25, i64 0, i64 %27
  %29 = call i32 (i8*, ...) @__isoc99_scanf(i8* getelementptr inbounds ([3 x i8], [3 x i8]* @.str, i64 0, i64 0), i32* %28)
  br label %30

30:                                               ; preds = %22
  %31 = load i32, i32* %4, align 4
  %32 = add nsw i32 %31, 1
  store i32 %32, i32* %4, align 4
  br label %19

33:                                               ; preds = %19
  %34 = load i32, i32* %3, align 4
  %35 = sext i32 %34 to i64
  %36 = getelementptr inbounds [99999 x [3 x i32]], [99999 x [3 x i32]]* %5, i64 0, i64 %35
  %37 = getelementptr inbounds [3 x i32], [3 x i32]* %36, i64 0, i64 1
  %38 = load i32, i32* %37, align 4
  %39 = load i32, i32* %3, align 4
  %40 = sext i32 %39 to i64
  %41 = getelementptr inbounds [99999 x [3 x i32]], [99999 x [3 x i32]]* %5, i64 0, i64 %40
  %42 = getelementptr inbounds [3 x i32], [3 x i32]* %41, i64 0, i64 2
  %43 = load i32, i32* %42, align 4
  %44 = add nsw i32 %38, %43
  %45 = load i32, i32* %3, align 4
  %46 = sext i32 %45 to i64
  %47 = getelementptr inbounds [99999 x i32], [99999 x i32]* %6, i64 0, i64 %46
  store i32 %44, i32* %47, align 4
  br label %48

48:                                               ; preds = %33
  %49 = load i32, i32* %3, align 4
  %50 = add nsw i32 %49, 1
  store i32 %50, i32* %3, align 4
  br label %14

51:                                               ; preds = %14
  store i32 0, i32* %3, align 4
  br label %52

52:                                               ; preds = %116, %51
  %53 = load i32, i32* %3, align 4
  %54 = load i32, i32* %2, align 4
  %55 = icmp slt i32 %53, %54
  br i1 %55, label %56, label %119

56:                                               ; preds = %52
  %57 = load i32, i32* %3, align 4
  %58 = sext i32 %57 to i64
  %59 = getelementptr inbounds [99999 x i32], [99999 x i32]* %6, i64 0, i64 %58
  %60 = load i32, i32* %59, align 4
  %61 = load i32, i32* %7, align 4
  %62 = icmp sgt i32 %60, %61
  br i1 %62, label %63, label %73

63:                                               ; preds = %56
  %64 = load i32, i32* %8, align 4
  store i32 %64, i32* %9, align 4
  %65 = load i32, i32* %7, align 4
  store i32 %65, i32* %8, align 4
  %66 = load i32, i32* %3, align 4
  %67 = sext i32 %66 to i64
  %68 = getelementptr inbounds [99999 x i32], [99999 x i32]* %6, i64 0, i64 %67
  %69 = load i32, i32* %68, align 4
  store i32 %69, i32* %7, align 4
  %70 = load i32, i32* %11, align 4
  store i32 %70, i32* %12, align 4
  %71 = load i32, i32* %10, align 4
  store i32 %71, i32* %11, align 4
  %72 = load i32, i32* %3, align 4
  store i32 %72, i32* %10, align 4
  br label %116

73:                                               ; preds = %56
  %74 = load i32, i32* %3, align 4
  %75 = sext i32 %74 to i64
  %76 = getelementptr inbounds [99999 x i32], [99999 x i32]* %6, i64 0, i64 %75
  %77 = load i32, i32* %76, align 4
  %78 = load i32, i32* %8, align 4
  %79 = icmp sgt i32 %77, %78
  br i1 %79, label %80, label %95

80:                                               ; preds = %73
  %81 = load i32, i32* %3, align 4
  %82 = sext i32 %81 to i64
  %83 = getelementptr inbounds [99999 x i32], [99999 x i32]* %6, i64 0, i64 %82
  %84 = load i32, i32* %83, align 4
  %85 = load i32, i32* %7, align 4
  %86 = icmp sle i32 %84, %85
  br i1 %86, label %87, label %95

87:                                               ; preds = %80
  %88 = load i32, i32* %8, align 4
  store i32 %88, i32* %9, align 4
  %89 = load i32, i32* %3, align 4
  %90 = sext i32 %89 to i64
  %91 = getelementptr inbounds [99999 x i32], [99999 x i32]* %6, i64 0, i64 %90
  %92 = load i32, i32* %91, align 4
  store i32 %92, i32* %8, align 4
  %93 = load i32, i32* %11, align 4
  store i32 %93, i32* %12, align 4
  %94 = load i32, i32* %3, align 4
  store i32 %94, i32* %11, align 4
  br label %116

95:                                               ; preds = %80, %73
  %96 = load i32, i32* %3, align 4
  %97 = sext i32 %96 to i64
  %98 = getelementptr inbounds [99999 x i32], [99999 x i32]* %6, i64 0, i64 %97
  %99 = load i32, i32* %98, align 4
  %100 = load i32, i32* %9, align 4
  %101 = icmp sgt i32 %99, %100
  br i1 %101, label %102, label %115

102:                                              ; preds = %95
  %103 = load i32, i32* %3, align 4
  %104 = sext i32 %103 to i64
  %105 = getelementptr inbounds [99999 x i32], [99999 x i32]* %6, i64 0, i64 %104
  %106 = load i32, i32* %105, align 4
  %107 = load i32, i32* %8, align 4
  %108 = icmp sle i32 %106, %107
  br i1 %108, label %109, label %115

109:                                              ; preds = %102
  %110 = load i32, i32* %3, align 4
  %111 = sext i32 %110 to i64
  %112 = getelementptr inbounds [99999 x i32], [99999 x i32]* %6, i64 0, i64 %111
  %113 = load i32, i32* %112, align 4
  store i32 %113, i32* %9, align 4
  %114 = load i32, i32* %3, align 4
  store i32 %114, i32* %12, align 4
  br label %115

115:                                              ; preds = %109, %102, %95
  br label %116

116:                                              ; preds = %115, %87, %63
  %117 = load i32, i32* %3, align 4
  %118 = add nsw i32 %117, 1
  store i32 %118, i32* %3, align 4
  br label %52

119:                                              ; preds = %52
  %120 = load i32, i32* %10, align 4
  %121 = sext i32 %120 to i64
  %122 = getelementptr inbounds [99999 x [3 x i32]], [99999 x [3 x i32]]* %5, i64 0, i64 %121
  %123 = getelementptr inbounds [3 x i32], [3 x i32]* %122, i64 0, i64 0
  %124 = load i32, i32* %123, align 4
  %125 = load i32, i32* %7, align 4
  %126 = call i32 (i8*, ...) @printf(i8* getelementptr inbounds ([7 x i8], [7 x i8]* @.str.1, i64 0, i64 0), i32 %124, i32 %125)
  %127 = load i32, i32* %11, align 4
  %128 = sext i32 %127 to i64
  %129 = getelementptr inbounds [99999 x [3 x i32]], [99999 x [3 x i32]]* %5, i64 0, i64 %128
  %130 = getelementptr inbounds [3 x i32], [3 x i32]* %129, i64 0, i64 0
  %131 = load i32, i32* %130, align 4
  %132 = load i32, i32* %8, align 4
  %133 = call i32 (i8*, ...) @printf(i8* getelementptr inbounds ([7 x i8], [7 x i8]* @.str.1, i64 0, i64 0), i32 %131, i32 %132)
  %134 = load i32, i32* %12, align 4
  %135 = sext i32 %134 to i64
  %136 = getelementptr inbounds [99999 x [3 x i32]], [99999 x [3 x i32]]* %5, i64 0, i64 %135
  %137 = getelementptr inbounds [3 x i32], [3 x i32]* %136, i64 0, i64 0
  %138 = load i32, i32* %137, align 4
  %139 = load i32, i32* %9, align 4
  %140 = call i32 (i8*, ...) @printf(i8* getelementptr inbounds ([7 x i8], [7 x i8]* @.str.1, i64 0, i64 0), i32 %138, i32 %139)
  ret i32 0
}

declare dso_local i32 @__isoc99_scanf(i8*, ...) #1

declare dso_local i32 @printf(i8*, ...) #1


!llvm.module.flags = !{!0}
!llvm.ident = !{!1}

!0 = !{i32 1, !"wchar_size", i32 4}
!1 = !{!"clang version 10.0.0-4ubuntu1 "}
